target datalayout = "e-m:e-p270:32:32-p271:32:32-p272:64:64-i64:64-i128:128-f80:128-n8:16:32:64-S128"
target triple = "x86_64-pc-linux-gnu"

%struct.expert_field = type { i32, i32 }

@hf_nfs_fh_obj_id = internal global i32 0, align 4
@hf_nfs_fh_ro_node = internal global i32 0, align 4
@hf_nfs_fh_obj = internal global i32 0, align 4
@hf_nfs_fh_obj_fsid = internal global i32 0, align 4
@hf_nfs_fh_obj_kindid = internal global i32 0, align 4
@hf_nfs_fh_obj_treeid = internal global i32 0, align 4
@hf_nfs_fh_obj_inode = internal global i32 0, align 4
@hf_nfs_fh_obj_gen = internal global i32 0, align 4
@hf_nfs_fh_ex = internal global i32 0, align 4
@hf_nfs_fh_ex_fsid = internal global i32 0, align 4
@hf_nfs_fh_ex_kindid = internal global i32 0, align 4
@hf_nfs_fh_ex_treeid = internal global i32 0, align 4
@hf_nfs_fh_ex_inode = internal global i32 0, align 4
@hf_nfs_fh_ex_gen = internal global i32 0, align 4
@hf_nfs_fh_fhandle_data = internal global i32 0, align 4
@ett_nfs_fh_obj = internal global i32 0, align 4
@ett_nfs_fh_ex = internal global i32 0, align 4
@ei_nfs_not_vnx_file = internal global %struct.expert_field zeroinitializer, align 4
@.str.2534 = private unnamed_addr constant [155 x i8] c"Celerra|VNX file handles are 32 (NFSv3) or 40 (NFSv4) but the length is %u.\0AChange the 'Decode NFS file handles as' pref to the correct type or 'Unknown'.\00", align 1

; Function Attrs: null_pointer_is_valid sspstrong uwtable
define internal i32 @dissect_fhandle_data_CELERRA_VNX(ptr noundef %0, ptr noundef %1, ptr noundef %2, ptr noundef %3) #0 {
  %5 = alloca i32, align 4
  %6 = alloca ptr, align 8
  %7 = alloca ptr, align 8
  %8 = alloca ptr, align 8
  %9 = alloca ptr, align 8
  %10 = alloca i16, align 2
  %11 = alloca i16, align 2
  %12 = alloca i32, align 4
  %13 = alloca ptr, align 8
  %14 = alloca ptr, align 8
  %15 = alloca i32, align 4
  %16 = alloca ptr, align 8
  %17 = alloca ptr, align 8
  %18 = alloca ptr, align 8
  %19 = alloca ptr, align 8
  %20 = alloca ptr, align 8
  %21 = alloca ptr, align 8
  store ptr %0, ptr %6, align 8
  store ptr %1, ptr %7, align 8
  store ptr %2, ptr %8, align 8
  store ptr %3, ptr %9, align 8
  call void @llvm.lifetime.start.p0(i64 2, ptr %10) #16
  store i16 0, ptr %10, align 2
  call void @llvm.lifetime.start.p0(i64 2, ptr %11) #16
  call void @llvm.lifetime.start.p0(i64 4, ptr %12) #16
  %22 = load ptr, ptr %6, align 8
  %23 = call i32 @tvb_reported_length(ptr noundef %22)
  %24 = trunc i32 %23 to i16
  store i16 %24, ptr %11, align 2
  %25 = load ptr, ptr %8, align 8
  %26 = load i32, ptr @hf_nfs_fh_fhandle_data, align 4
  %27 = load ptr, ptr %6, align 8
  %28 = load i16, ptr %11, align 2
  %29 = zext i16 %28 to i32
  %30 = call ptr @proto_tree_add_item(ptr noundef %25, i32 noundef %26, ptr noundef %27, i32 noundef 0, i32 noundef %29, i32 noundef 0)
  %31 = load i16, ptr %11, align 2
  %32 = zext i16 %31 to i32
  %33 = icmp eq i32 %32, 32
  br i1 %33, label %34, label %134

34:                                               ; preds = %4
  call void @llvm.lifetime.start.p0(i64 8, ptr %13) #16
  call void @llvm.lifetime.start.p0(i64 8, ptr %14) #16
  %35 = load ptr, ptr %8, align 8
  %36 = icmp ne ptr %35, null
  br i1 %36, label %40, label %37

37:                                               ; preds = %34
  %38 = load ptr, ptr %6, align 8
  %39 = call i32 @tvb_captured_length(ptr noundef %38)
  store i32 %39, ptr %5, align 4
  store i32 1, ptr %15, align 4
  br label %86

40:                                               ; preds = %34
  %41 = load ptr, ptr %8, align 8
  %42 = load i32, ptr @hf_nfs_fh_obj, align 4
  %43 = load ptr, ptr %6, align 8
  %44 = load i16, ptr %10, align 2
  %45 = zext i16 %44 to i32
  %46 = add i32 %45, 0
  %47 = call ptr @proto_tree_add_item(ptr noundef %41, i32 noundef %42, ptr noundef %43, i32 noundef %46, i32 noundef 16, i32 noundef 0)
  store ptr %47, ptr %13, align 8
  %48 = load ptr, ptr %13, align 8
  %49 = load i32, ptr @ett_nfs_fh_obj, align 4
  %50 = call ptr @proto_item_add_subtree(ptr noundef %48, i32 noundef %49)
  store ptr %50, ptr %14, align 8
  %51 = load ptr, ptr %14, align 8
  %52 = load i32, ptr @hf_nfs_fh_obj_fsid, align 4
  %53 = load ptr, ptr %6, align 8
  %54 = load i16, ptr %10, align 2
  %55 = zext i16 %54 to i32
  %56 = add i32 %55, 0
  %57 = call ptr @proto_tree_add_item(ptr noundef %51, i32 noundef %52, ptr noundef %53, i32 noundef %56, i32 noundef 4, i32 noundef -2147483648)
  %58 = load ptr, ptr %14, align 8
  %59 = load i32, ptr @hf_nfs_fh_obj_kindid, align 4
  %60 = load ptr, ptr %6, align 8
  %61 = load i16, ptr %10, align 2
  %62 = zext i16 %61 to i32
  %63 = add i32 %62, 4
  %64 = call ptr @proto_tree_add_item(ptr noundef %58, i32 noundef %59, ptr noundef %60, i32 noundef %63, i32 noundef 2, i32 noundef -2147483648)
  %65 = load ptr, ptr %14, align 8
  %66 = load i32, ptr @hf_nfs_fh_obj_treeid, align 4
  %67 = load ptr, ptr %6, align 8
  %68 = load i16, ptr %10, align 2
  %69 = zext i16 %68 to i32
  %70 = add i32 %69, 6
  %71 = call ptr @proto_tree_add_item(ptr noundef %65, i32 noundef %66, ptr noundef %67, i32 noundef %70, i32 noundef 2, i32 noundef -2147483648)
  %72 = load ptr, ptr %14, align 8
  %73 = load i32, ptr @hf_nfs_fh_obj_inode, align 4
  %74 = load ptr, ptr %6, align 8
  %75 = load i16, ptr %10, align 2
  %76 = zext i16 %75 to i32
  %77 = add i32 %76, 8
  %78 = call ptr @proto_tree_add_item(ptr noundef %72, i32 noundef %73, ptr noundef %74, i32 noundef %77, i32 noundef 4, i32 noundef -2147483648)
  %79 = load ptr, ptr %14, align 8
  %80 = load i32, ptr @hf_nfs_fh_obj_gen, align 4
  %81 = load ptr, ptr %6, align 8
  %82 = load i16, ptr %10, align 2
  %83 = zext i16 %82 to i32
  %84 = add i32 %83, 12
  %85 = call ptr @proto_tree_add_item(ptr noundef %79, i32 noundef %80, ptr noundef %81, i32 noundef %84, i32 noundef 4, i32 noundef -2147483648)
  store i32 0, ptr %15, align 4
  br label %86

86:                                               ; preds = %40, %37
  call void @llvm.lifetime.end.p0(i64 8, ptr %14) #16
  call void @llvm.lifetime.end.p0(i64 8, ptr %13) #16
  %87 = load i32, ptr %15, align 4
  switch i32 %87, label %272 [
    i32 0, label %88
  ]

88:                                               ; preds = %86
  call void @llvm.lifetime.start.p0(i64 8, ptr %16) #16
  call void @llvm.lifetime.start.p0(i64 8, ptr %17) #16
  %89 = load ptr, ptr %8, align 8
  %90 = load i32, ptr @hf_nfs_fh_ex, align 4
  %91 = load ptr, ptr %6, align 8
  %92 = load i16, ptr %10, align 2
  %93 = zext i16 %92 to i32
  %94 = add i32 %93, 16
  %95 = call ptr @proto_tree_add_item(ptr noundef %89, i32 noundef %90, ptr noundef %91, i32 noundef %94, i32 noundef 16, i32 noundef 0)
  store ptr %95, ptr %16, align 8
  %96 = load ptr, ptr %16, align 8
  %97 = load i32, ptr @ett_nfs_fh_ex, align 4
  %98 = call ptr @proto_item_add_subtree(ptr noundef %96, i32 noundef %97)
  store ptr %98, ptr %17, align 8
  %99 = load ptr, ptr %17, align 8
  %100 = load i32, ptr @hf_nfs_fh_ex_fsid, align 4
  %101 = load ptr, ptr %6, align 8
  %102 = load i16, ptr %10, align 2
  %103 = zext i16 %102 to i32
  %104 = add i32 %103, 16
  %105 = call ptr @proto_tree_add_item(ptr noundef %99, i32 noundef %100, ptr noundef %101, i32 noundef %104, i32 noundef 4, i32 noundef -2147483648)
  %106 = load ptr, ptr %17, align 8
  %107 = load i32, ptr @hf_nfs_fh_ex_kindid, align 4
  %108 = load ptr, ptr %6, align 8
  %109 = load i16, ptr %10, align 2
  %110 = zext i16 %109 to i32
  %111 = add i32 %110, 20
  %112 = call ptr @proto_tree_add_item(ptr noundef %106, i32 noundef %107, ptr noundef %108, i32 noundef %111, i32 noundef 2, i32 noundef -2147483648)
  %113 = load ptr, ptr %17, align 8
  %114 = load i32, ptr @hf_nfs_fh_ex_treeid, align 4
  %115 = load ptr, ptr %6, align 8
  %116 = load i16, ptr %10, align 2
  %117 = zext i16 %116 to i32
  %118 = add i32 %117, 22
  %119 = call ptr @proto_tree_add_item(ptr noundef %113, i32 noundef %114, ptr noundef %115, i32 noundef %118, i32 noundef 2, i32 noundef -2147483648)
  %120 = load ptr, ptr %17, align 8
  %121 = load i32, ptr @hf_nfs_fh_ex_inode, align 4
  %122 = load ptr, ptr %6, align 8
  %123 = load i16, ptr %10, align 2
  %124 = zext i16 %123 to i32
  %125 = add i32 %124, 24
  %126 = call ptr @proto_tree_add_item(ptr noundef %120, i32 noundef %121, ptr noundef %122, i32 noundef %125, i32 noundef 4, i32 noundef -2147483648)
  %127 = load ptr, ptr %17, align 8
  %128 = load i32, ptr @hf_nfs_fh_ex_gen, align 4
  %129 = load ptr, ptr %6, align 8
  %130 = load i16, ptr %10, align 2
  %131 = zext i16 %130 to i32
  %132 = add i32 %131, 28
  %133 = call ptr @proto_tree_add_item(ptr noundef %127, i32 noundef %128, ptr noundef %129, i32 noundef %132, i32 noundef 4, i32 noundef -2147483648)
  call void @llvm.lifetime.end.p0(i64 8, ptr %17) #16
  call void @llvm.lifetime.end.p0(i64 8, ptr %16) #16
  br label %269

134:                                              ; preds = %4
  %135 = load i16, ptr %11, align 2
  %136 = zext i16 %135 to i32
  %137 = icmp eq i32 %136, 40
  br i1 %137, label %138, label %262

138:                                              ; preds = %134
  %139 = load ptr, ptr %8, align 8
  %140 = icmp ne ptr %139, null
  br i1 %140, label %144, label %141

141:                                              ; preds = %138
  %142 = load ptr, ptr %6, align 8
  %143 = call i32 @tvb_captured_length(ptr noundef %142)
  store i32 %143, ptr %5, align 4
  store i32 1, ptr %15, align 4
  br label %272

144:                                              ; preds = %138
  %145 = load ptr, ptr %6, align 8
  %146 = load i16, ptr %10, align 2
  %147 = zext i16 %146 to i32
  %148 = add i32 %147, 0
  %149 = call i32 @tvb_get_letohl(ptr noundef %145, i32 noundef %148)
  store i32 %149, ptr %12, align 4
  %150 = load i32, ptr %12, align 4
  %151 = icmp ule i32 %150, 0
  br i1 %151, label %155, label %152

152:                                              ; preds = %144
  %153 = load i32, ptr %12, align 4
  %154 = icmp ugt i32 %153, 9
  br i1 %154, label %155, label %156

155:                                              ; preds = %152, %144
  store i32 1, ptr %12, align 4
  br label %156

156:                                              ; preds = %155, %152
  %157 = load ptr, ptr %8, align 8
  %158 = load i32, ptr @hf_nfs_fh_obj_id, align 4
  %159 = load ptr, ptr %6, align 8
  %160 = load i16, ptr %10, align 2
  %161 = zext i16 %160 to i32
  %162 = add i32 %161, 0
  %163 = load i32, ptr %12, align 4
  %164 = call ptr @proto_tree_add_uint(ptr noundef %157, i32 noundef %158, ptr noundef %159, i32 noundef %162, i32 noundef 4, i32 noundef %163)
  %165 = load ptr, ptr %8, align 8
  %166 = load i32, ptr @hf_nfs_fh_ro_node, align 4
  %167 = load ptr, ptr %6, align 8
  %168 = load i16, ptr %10, align 2
  %169 = zext i16 %168 to i32
  %170 = add i32 %169, 4
  %171 = call ptr @proto_tree_add_item(ptr noundef %165, i32 noundef %166, ptr noundef %167, i32 noundef %170, i32 noundef 4, i32 noundef -2147483648)
  call void @llvm.lifetime.start.p0(i64 8, ptr %18) #16
  call void @llvm.lifetime.start.p0(i64 8, ptr %19) #16
  %172 = load ptr, ptr %8, align 8
  %173 = load i32, ptr @hf_nfs_fh_ex, align 4
  %174 = load ptr, ptr %6, align 8
  %175 = load i16, ptr %10, align 2
  %176 = zext i16 %175 to i32
  %177 = add i32 %176, 8
  %178 = call ptr @proto_tree_add_item(ptr noundef %172, i32 noundef %173, ptr noundef %174, i32 noundef %177, i32 noundef 16, i32 noundef 0)
  store ptr %178, ptr %18, align 8
  %179 = load ptr, ptr %18, align 8
  %180 = load i32, ptr @ett_nfs_fh_ex, align 4
  %181 = call ptr @proto_item_add_subtree(ptr noundef %179, i32 noundef %180)
  store ptr %181, ptr %19, align 8
  %182 = load ptr, ptr %19, align 8
  %183 = load i32, ptr @hf_nfs_fh_ex_fsid, align 4
  %184 = load ptr, ptr %6, align 8
  %185 = load i16, ptr %10, align 2
  %186 = zext i16 %185 to i32
  %187 = add i32 %186, 8
  %188 = call ptr @proto_tree_add_item(ptr noundef %182, i32 noundef %183, ptr noundef %184, i32 noundef %187, i32 noundef 4, i32 noundef -2147483648)
  %189 = load ptr, ptr %19, align 8
  %190 = load i32, ptr @hf_nfs_fh_ex_kindid, align 4
  %191 = load ptr, ptr %6, align 8
  %192 = load i16, ptr %10, align 2
  %193 = zext i16 %192 to i32
  %194 = add i32 %193, 12
  %195 = call ptr @proto_tree_add_item(ptr noundef %189, i32 noundef %190, ptr noundef %191, i32 noundef %194, i32 noundef 2, i32 noundef -2147483648)
  %196 = load ptr, ptr %19, align 8
  %197 = load i32, ptr @hf_nfs_fh_ex_treeid, align 4
  %198 = load ptr, ptr %6, align 8
  %199 = load i16, ptr %10, align 2
  %200 = zext i16 %199 to i32
  %201 = add i32 %200, 14
  %202 = call ptr @proto_tree_add_item(ptr noundef %196, i32 noundef %197, ptr noundef %198, i32 noundef %201, i32 noundef 2, i32 noundef -2147483648)
  %203 = load ptr, ptr %19, align 8
  %204 = load i32, ptr @hf_nfs_fh_ex_inode, align 4
  %205 = load ptr, ptr %6, align 8
  %206 = load i16, ptr %10, align 2
  %207 = zext i16 %206 to i32
  %208 = add i32 %207, 16
  %209 = call ptr @proto_tree_add_item(ptr noundef %203, i32 noundef %204, ptr noundef %205, i32 noundef %208, i32 noundef 4, i32 noundef -2147483648)
  %210 = load ptr, ptr %19, align 8
  %211 = load i32, ptr @hf_nfs_fh_ex_gen, align 4
  %212 = load ptr, ptr %6, align 8
  %213 = load i16, ptr %10, align 2
  %214 = zext i16 %213 to i32
  %215 = add i32 %214, 20
  %216 = call ptr @proto_tree_add_item(ptr noundef %210, i32 noundef %211, ptr noundef %212, i32 noundef %215, i32 noundef 4, i32 noundef -2147483648)
  call void @llvm.lifetime.end.p0(i64 8, ptr %19) #16
  call void @llvm.lifetime.end.p0(i64 8, ptr %18) #16
  call void @llvm.lifetime.start.p0(i64 8, ptr %20) #16
  call void @llvm.lifetime.start.p0(i64 8, ptr %21) #16
  %217 = load ptr, ptr %8, align 8
  %218 = load i32, ptr @hf_nfs_fh_obj, align 4
  %219 = load ptr, ptr %6, align 8
  %220 = load i16, ptr %10, align 2
  %221 = zext i16 %220 to i32
  %222 = add i32 %221, 24
  %223 = call ptr @proto_tree_add_item(ptr noundef %217, i32 noundef %218, ptr noundef %219, i32 noundef %222, i32 noundef 16, i32 noundef 0)
  store ptr %223, ptr %20, align 8
  %224 = load ptr, ptr %20, align 8
  %225 = load i32, ptr @ett_nfs_fh_obj, align 4
  %226 = call ptr @proto_item_add_subtree(ptr noundef %224, i32 noundef %225)
  store ptr %226, ptr %21, align 8
  %227 = load ptr, ptr %21, align 8
  %228 = load i32, ptr @hf_nfs_fh_obj_fsid, align 4
  %229 = load ptr, ptr %6, align 8
  %230 = load i16, ptr %10, align 2
  %231 = zext i16 %230 to i32
  %232 = add i32 %231, 24
  %233 = call ptr @proto_tree_add_item(ptr noundef %227, i32 noundef %228, ptr noundef %229, i32 noundef %232, i32 noundef 4, i32 noundef -2147483648)
  %234 = load ptr, ptr %21, align 8
  %235 = load i32, ptr @hf_nfs_fh_obj_kindid, align 4
  %236 = load ptr, ptr %6, align 8
  %237 = load i16, ptr %10, align 2
  %238 = zext i16 %237 to i32
  %239 = add i32 %238, 28
  %240 = call ptr @proto_tree_add_item(ptr noundef %234, i32 noundef %235, ptr noundef %236, i32 noundef %239, i32 noundef 2, i32 noundef -2147483648)
  %241 = load ptr, ptr %21, align 8
  %242 = load i32, ptr @hf_nfs_fh_obj_treeid, align 4
  %243 = load ptr, ptr %6, align 8
  %244 = load i16, ptr %10, align 2
  %245 = zext i16 %244 to i32
  %246 = add i32 %245, 30
  %247 = call ptr @proto_tree_add_item(ptr noundef %241, i32 noundef %242, ptr noundef %243, i32 noundef %246, i32 noundef 2, i32 noundef -2147483648)
  %248 = load ptr, ptr %21, align 8
  %249 = load i32, ptr @hf_nfs_fh_obj_inode, align 4
  %250 = load ptr, ptr %6, align 8
  %251 = load i16, ptr %10, align 2
  %252 = zext i16 %251 to i32
  %253 = add i32 %252, 32
  %254 = call ptr @proto_tree_add_item(ptr noundef %248, i32 noundef %249, ptr noundef %250, i32 noundef %253, i32 noundef 4, i32 noundef -2147483648)
  %255 = load ptr, ptr %21, align 8
  %256 = load i32, ptr @hf_nfs_fh_obj_gen, align 4
  %257 = load ptr, ptr %6, align 8
  %258 = load i16, ptr %10, align 2
  %259 = zext i16 %258 to i32
  %260 = add i32 %259, 36
  %261 = call ptr @proto_tree_add_item(ptr noundef %255, i32 noundef %256, ptr noundef %257, i32 noundef %260, i32 noundef 4, i32 noundef -2147483648)
  call void @llvm.lifetime.end.p0(i64 8, ptr %21) #16
  call void @llvm.lifetime.end.p0(i64 8, ptr %20) #16
  br label %268

262:                                              ; preds = %134
  %263 = load ptr, ptr %7, align 8
  %264 = load ptr, ptr %8, align 8
  %265 = load i16, ptr %11, align 2
  %266 = zext i16 %265 to i32
  %267 = call ptr (ptr, ptr, ptr, ptr, ...) @expert_add_info_format(ptr noundef %263, ptr noundef %264, ptr noundef @ei_nfs_not_vnx_file, ptr noundef @.str.2534, i32 noundef %266)
  br label %268

268:                                              ; preds = %262, %156
  br label %269

269:                                              ; preds = %268, %88
  %270 = load ptr, ptr %6, align 8
  %271 = call i32 @tvb_captured_length(ptr noundef %270)
  store i32 %271, ptr %5, align 4
  store i32 1, ptr %15, align 4
  br label %272

272:                                              ; preds = %269, %141, %86
  call void @llvm.lifetime.end.p0(i64 4, ptr %12) #16
  call void @llvm.lifetime.end.p0(i64 2, ptr %11) #16
  call void @llvm.lifetime.end.p0(i64 2, ptr %10) #16
  %273 = load i32, ptr %5, align 4
  ret i32 %273
}