; Function Attrs: null_pointer_is_valid sspstrong uwtable
define internal i32 @dissect_fhandle_data_CELERRA_VNX(ptr noundef %0, ptr noundef %1, ptr noundef %2, ptr readnone captures(none) %3) #0 {
  %5 = tail call i32 @tvb_reported_length(ptr noundef %0)
  %6 = load i32, ptr @hf_nfs_fh_fhandle_data, align 4
  %7 = and i32 %5, 65535
  %8 = tail call ptr @proto_tree_add_item(ptr noundef %2, i32 noundef %6, ptr noundef %0, i32 noundef 0, i32 noundef %7, i32 noundef 0)
  %trunc = trunc i32 %5 to i16
  switch i16 %trunc, label %75 [
    i16 32, label %9
    i16 40, label %39
  ]

9:                                                ; preds = %4
  %.not107.not = icmp eq ptr %2, null
  br i1 %.not107.not, label %.thread, label %10

10:                                               ; preds = %9
  %11 = load i32, ptr @hf_nfs_fh_obj, align 4
  %12 = tail call ptr @proto_tree_add_item(ptr noundef nonnull %2, i32 noundef %11, ptr noundef %0, i32 noundef 0, i32 noundef 16, i32 noundef 0)
  %13 = load i32, ptr @ett_nfs_fh_obj, align 4
  %14 = tail call ptr @proto_item_add_subtree(ptr noundef %12, i32 noundef %13)
  %15 = load i32, ptr @hf_nfs_fh_obj_fsid, align 4
  %16 = tail call ptr @proto_tree_add_item(ptr noundef %14, i32 noundef %15, ptr noundef %0, i32 noundef 0, i32 noundef 4, i32 noundef -2147483648)
  %17 = load i32, ptr @hf_nfs_fh_obj_kindid, align 4
  %18 = tail call ptr @proto_tree_add_item(ptr noundef %14, i32 noundef %17, ptr noundef %0, i32 noundef 4, i32 noundef 2, i32 noundef -2147483648)
  %19 = load i32, ptr @hf_nfs_fh_obj_treeid, align 4
  %20 = tail call ptr @proto_tree_add_item(ptr noundef %14, i32 noundef %19, ptr noundef %0, i32 noundef 6, i32 noundef 2, i32 noundef -2147483648)
  %21 = load i32, ptr @hf_nfs_fh_obj_inode, align 4
  %22 = tail call ptr @proto_tree_add_item(ptr noundef %14, i32 noundef %21, ptr noundef %0, i32 noundef 8, i32 noundef 4, i32 noundef -2147483648)
  %23 = load i32, ptr @hf_nfs_fh_obj_gen, align 4
  %24 = tail call ptr @proto_tree_add_item(ptr noundef %14, i32 noundef %23, ptr noundef %0, i32 noundef 12, i32 noundef 4, i32 noundef -2147483648)
  %25 = load i32, ptr @hf_nfs_fh_ex, align 4
  %26 = tail call ptr @proto_tree_add_item(ptr noundef nonnull %2, i32 noundef %25, ptr noundef %0, i32 noundef 16, i32 noundef 16, i32 noundef 0)
  %27 = load i32, ptr @ett_nfs_fh_ex, align 4
  %28 = tail call ptr @proto_item_add_subtree(ptr noundef %26, i32 noundef %27)
  %29 = load i32, ptr @hf_nfs_fh_ex_fsid, align 4
  %30 = tail call ptr @proto_tree_add_item(ptr noundef %28, i32 noundef %29, ptr noundef %0, i32 noundef 16, i32 noundef 4, i32 noundef -2147483648)
  %31 = load i32, ptr @hf_nfs_fh_ex_kindid, align 4
  %32 = tail call ptr @proto_tree_add_item(ptr noundef %28, i32 noundef %31, ptr noundef %0, i32 noundef 20, i32 noundef 2, i32 noundef -2147483648)
  %33 = load i32, ptr @hf_nfs_fh_ex_treeid, align 4
  %34 = tail call ptr @proto_tree_add_item(ptr noundef %28, i32 noundef %33, ptr noundef %0, i32 noundef 22, i32 noundef 2, i32 noundef -2147483648)
  %35 = load i32, ptr @hf_nfs_fh_ex_inode, align 4
  %36 = tail call ptr @proto_tree_add_item(ptr noundef %28, i32 noundef %35, ptr noundef %0, i32 noundef 24, i32 noundef 4, i32 noundef -2147483648)
  %37 = load i32, ptr @hf_nfs_fh_ex_gen, align 4
  %38 = tail call ptr @proto_tree_add_item(ptr noundef %28, i32 noundef %37, ptr noundef %0, i32 noundef 28, i32 noundef 4, i32 noundef -2147483648)
  br label %.thread

39:                                               ; preds = %4
  %.not = icmp eq ptr %2, null
  br i1 %.not, label %.thread, label %40

40:                                               ; preds = %39
  %41 = tail call i32 @tvb_get_letohl(ptr noundef %0, i32 noundef 0)
  %42 = add i32 %41, -10
  %or.cond = icmp ult i32 %42, -9
  %spec.store.select = select i1 %or.cond, i32 1, i32 %41
  %43 = load i32, ptr @hf_nfs_fh_obj_id, align 4
  %44 = tail call ptr @proto_tree_add_uint(ptr noundef nonnull %2, i32 noundef %43, ptr noundef %0, i32 noundef 0, i32 noundef 4, i32 noundef %spec.store.select)
  %45 = load i32, ptr @hf_nfs_fh_ro_node, align 4
  %46 = tail call ptr @proto_tree_add_item(ptr noundef nonnull %2, i32 noundef %45, ptr noundef %0, i32 noundef 4, i32 noundef 4, i32 noundef -2147483648)
  %47 = load i32, ptr @hf_nfs_fh_ex, align 4
  %48 = tail call ptr @proto_tree_add_item(ptr noundef nonnull %2, i32 noundef %47, ptr noundef %0, i32 noundef 8, i32 noundef 16, i32 noundef 0)
  %49 = load i32, ptr @ett_nfs_fh_ex, align 4
  %50 = tail call ptr @proto_item_add_subtree(ptr noundef %48, i32 noundef %49)
  %51 = load i32, ptr @hf_nfs_fh_ex_fsid, align 4
  %52 = tail call ptr @proto_tree_add_item(ptr noundef %50, i32 noundef %51, ptr noundef %0, i32 noundef 8, i32 noundef 4, i32 noundef -2147483648)
  %53 = load i32, ptr @hf_nfs_fh_ex_kindid, align 4
  %54 = tail call ptr @proto_tree_add_item(ptr noundef %50, i32 noundef %53, ptr noundef %0, i32 noundef 12, i32 noundef 2, i32 noundef -2147483648)
  %55 = load i32, ptr @hf_nfs_fh_ex_treeid, align 4
  %56 = tail call ptr @proto_tree_add_item(ptr noundef %50, i32 noundef %55, ptr noundef %0, i32 noundef 14, i32 noundef 2, i32 noundef -2147483648)
  %57 = load i32, ptr @hf_nfs_fh_ex_inode, align 4
  %58 = tail call ptr @proto_tree_add_item(ptr noundef %50, i32 noundef %57, ptr noundef %0, i32 noundef 16, i32 noundef 4, i32 noundef -2147483648)
  %59 = load i32, ptr @hf_nfs_fh_ex_gen, align 4
  %60 = tail call ptr @proto_tree_add_item(ptr noundef %50, i32 noundef %59, ptr noundef %0, i32 noundef 20, i32 noundef 4, i32 noundef -2147483648)
  %61 = load i32, ptr @hf_nfs_fh_obj, align 4
  %62 = tail call ptr @proto_tree_add_item(ptr noundef nonnull %2, i32 noundef %61, ptr noundef %0, i32 noundef 24, i32 noundef 16, i32 noundef 0)
  %63 = load i32, ptr @ett_nfs_fh_obj, align 4
  %64 = tail call ptr @proto_item_add_subtree(ptr noundef %62, i32 noundef %63)
  %65 = load i32, ptr @hf_nfs_fh_obj_fsid, align 4
  %66 = tail call ptr @proto_tree_add_item(ptr noundef %64, i32 noundef %65, ptr noundef %0, i32 noundef 24, i32 noundef 4, i32 noundef -2147483648)
  %67 = load i32, ptr @hf_nfs_fh_obj_kindid, align 4
  %68 = tail call ptr @proto_tree_add_item(ptr noundef %64, i32 noundef %67, ptr noundef %0, i32 noundef 28, i32 noundef 2, i32 noundef -2147483648)
  %69 = load i32, ptr @hf_nfs_fh_obj_treeid, align 4
  %70 = tail call ptr @proto_tree_add_item(ptr noundef %64, i32 noundef %69, ptr noundef %0, i32 noundef 30, i32 noundef 2, i32 noundef -2147483648)
  %71 = load i32, ptr @hf_nfs_fh_obj_inode, align 4
  %72 = tail call ptr @proto_tree_add_item(ptr noundef %64, i32 noundef %71, ptr noundef %0, i32 noundef 32, i32 noundef 4, i32 noundef -2147483648)
  %73 = load i32, ptr @hf_nfs_fh_obj_gen, align 4
  %74 = tail call ptr @proto_tree_add_item(ptr noundef %64, i32 noundef %73, ptr noundef %0, i32 noundef 36, i32 noundef 4, i32 noundef -2147483648)
  br label %.thread

75:                                               ; preds = %4
  %76 = tail call ptr (ptr, ptr, ptr, ptr, ...) @expert_add_info_format(ptr noundef %1, ptr noundef %2, ptr noundef nonnull @ei_nfs_not_vnx_file, ptr noundef nonnull @.str.2534, i32 noundef %7)
  br label %.thread

.thread:                                          ; preds = %10, %75, %40, %39, %9
  %77 = tail call i32 @tvb_captured_length(ptr noundef %0)
  ret i32 %77
}